; ModuleID = 'source-C-CXX/46/3755.c'
source_filename = "source-C-CXX/46/3755.c"
target datalayout = "e-m:e-p270:32:32-p271:32:32-p272:64:64-i64:64-f80:128-n8:16:32:64-S128"
target triple = "x86_64-pc-linux-gnu"

@.str = private unnamed_addr constant [3 x i8] c"%d\00", align 1
@.str.1 = private unnamed_addr constant [4 x i8] c"%d \00", align 1
@.str.2 = private unnamed_addr constant [4 x i8] c"%d\0A\00", align 1

; Function Attrs: nofree nounwind sspstrong uwtable
define dso_local i32 @main(i32 %0, i8** nocapture readnone %1) local_unnamed_addr #0 {
  %3 = alloca i32, align 4
  %4 = alloca [111 x i32], align 16
  %5 = alloca [111 x i32], align 16
  %6 = bitcast i32* %3 to i8*
  call void @llvm.lifetime.start.p0i8(i64 4, i8* nonnull %6) #3
  %7 = bitcast [111 x i32]* %4 to i8*
  call void @llvm.lifetime.start.p0i8(i64 444, i8* nonnull %7) #3
  %8 = bitcast [111 x i32]* %5 to i8*
  call void @llvm.lifetime.start.p0i8(i64 444, i8* nonnull %8) #3
  %9 = call i32 (i8*, ...) @__isoc99_scanf(i8* getelementptr inbounds ([3 x i8], [3 x i8]* @.str, i64 0, i64 0), i32* nonnull %3)
  %10 = load i32, i32* %3, align 4, !tbaa !5
  %11 = icmp sgt i32 %10, 0
  br i1 %11, label %12, label %16

12:                                               ; preds = %2
  %13 = zext i32 %10 to i64
  br label %20

14:                                               ; preds = %20
  %15 = icmp sgt i32 %29, 1
  br i1 %15, label %32, label %16

16:                                               ; preds = %2, %14
  %17 = phi i32 [ %29, %14 ], [ %10, %2 ]
  %18 = add nsw i32 %17, -1
  %19 = sext i32 %18 to i64
  br label %42

20:                                               ; preds = %12, %20
  %21 = phi i64 [ 0, %12 ], [ %28, %20 ]
  %22 = phi i64 [ %13, %12 ], [ %23, %20 ]
  %23 = add nsw i64 %22, -1
  %24 = getelementptr inbounds [111 x i32], [111 x i32]* %4, i64 0, i64 %21
  %25 = call i32 (i8*, ...) @__isoc99_scanf(i8* getelementptr inbounds ([3 x i8], [3 x i8]* @.str, i64 0, i64 0), i32* nonnull %24)
  %26 = load i32, i32* %24, align 4, !tbaa !5
  %27 = getelementptr inbounds [111 x i32], [111 x i32]* %5, i64 0, i64 %23
  store i32 %26, i32* %27, align 4, !tbaa !5
  %28 = add nuw nsw i64 %21, 1
  %29 = load i32, i32* %3, align 4, !tbaa !5
  %30 = sext i32 %29 to i64
  %31 = icmp slt i64 %28, %30
  br i1 %31, label %20, label %14, !llvm.loop !9

32:                                               ; preds = %14, %32
  %33 = phi i64 [ %37, %32 ], [ 0, %14 ]
  %34 = getelementptr inbounds [111 x i32], [111 x i32]* %5, i64 0, i64 %33
  %35 = load i32, i32* %34, align 4, !tbaa !5
  %36 = call i32 (i8*, ...) @printf(i8* nonnull dereferenceable(1) getelementptr inbounds ([4 x i8], [4 x i8]* @.str.1, i64 0, i64 0), i32 %35)
  %37 = add nuw nsw i64 %33, 1
  %38 = load i32, i32* %3, align 4, !tbaa !5
  %39 = add nsw i32 %38, -1
  %40 = sext i32 %39 to i64
  %41 = icmp slt i64 %37, %40
  br i1 %41, label %32, label %42, !llvm.loop !11

42:                                               ; preds = %32, %16
  %43 = phi i64 [ %19, %16 ], [ %40, %32 ]
  %44 = getelementptr inbounds [111 x i32], [111 x i32]* %5, i64 0, i64 %43
  %45 = load i32, i32* %44, align 4, !tbaa !5
  %46 = call i32 (i8*, ...) @printf(i8* nonnull dereferenceable(1) getelementptr inbounds ([4 x i8], [4 x i8]* @.str.2, i64 0, i64 0), i32 %45)
  call void @llvm.lifetime.end.p0i8(i64 444, i8* nonnull %8) #3
  call void @llvm.lifetime.end.p0i8(i64 444, i8* nonnull %7) #3
  call void @llvm.lifetime.end.p0i8(i64 4, i8* nonnull %6) #3
  ret i32 0
}

; Function Attrs: argmemonly mustprogress nofree nosync nounwind willreturn
declare void @llvm.lifetime.start.p0i8(i64 immarg, i8* nocapture) #1

; Function Attrs: nofree nounwind
declare noundef i32 @__isoc99_scanf(i8* nocapture noundef readonly, ...) local_unnamed_addr #2

; Function Attrs: nofree nounwind
declare noundef i32 @printf(i8* nocapture noundef readonly, ...) local_unnamed_addr #2

; Function Attrs: argmemonly mustprogress nofree nosync nounwind willreturn
declare void @llvm.lifetime.end.p0i8(i64 immarg, i8* nocapture) #1


!llvm.module.flags = !{!0, !1, !2, !3}
!llvm.ident = !{!4}

!0 = !{i32 1, !"wchar_size", i32 4}
!1 = !{i32 7, !"PIC Level", i32 2}
!2 = !{i32 7, !"PIE Level", i32 2}
!3 = !{i32 7, !"uwtable", i32 1}
!4 = !{!"clang version 13.0.0"}
!5 = !{!6, !6, i64 0}
!6 = !{!"int", !7, i64 0}
!7 = !{!"omnipotent char", !8, i64 0}
!8 = !{!"Simple C/C++ TBAA"}
!9 = distinct !{!9, !10}
!10 = !{!"llvm.loop.mustprogress"}
!11 = distinct !{!11, !10}
